target datalayout = "e-m:e-p270:32:32-p271:32:32-p272:64:64-i64:64-i128:128-f80:128-n8:16:32:64-S128"
target triple = "x86_64-pc-linux-gnu"

%struct.rlglData = type { ptr, %struct.rlRenderBatch, %struct.anon, %struct.anon.0 }
%struct.rlRenderBatch = type { i32, i32, ptr, ptr, i32, float }
%struct.anon = type { i32, float, float, float, float, float, i8, i8, i8, i8, i32, ptr, %struct.Matrix, %struct.Matrix, %struct.Matrix, i8, [32 x %struct.Matrix], i32, i32, [4 x i32], i32, i32, i32, ptr, i32, ptr, i8, [2 x %struct.Matrix], [2 x %struct.Matrix], i32, i32, i32, i32, i32, i32, i32, i32, i32, i32, i8, i32, i32 }
%struct.Matrix = type { float, float, float, float, float, float, float, float, float, float, float, float, float, float, float, float }
%struct.anon.0 = type { i8, i8, i8, i8, i8, i8, i8, i8, i8, i8, i8, i8, i8, i8, i8, i8, float, i32 }

@RLGL = internal global %struct.rlglData zeroinitializer, align 8

; Function Attrs: nounwind uwtable
define void @rlColor4ub(i8 noundef zeroext %0, i8 noundef zeroext %1, i8 noundef zeroext %2, i8 noundef zeroext %3) #0 {
  %5 = alloca i8, align 1
  %6 = alloca i8, align 1
  %7 = alloca i8, align 1
  %8 = alloca i8, align 1
  store i8 %0, ptr %5, align 1
  store i8 %1, ptr %6, align 1
  store i8 %2, ptr %7, align 1
  store i8 %3, ptr %8, align 1
  %9 = load i8, ptr %5, align 1
  store i8 %9, ptr getelementptr inbounds nuw (%struct.anon, ptr getelementptr inbounds nuw (%struct.rlglData, ptr @RLGL, i32 0, i32 2), i32 0, i32 6), align 8
  %10 = load i8, ptr %6, align 1
  store i8 %10, ptr getelementptr inbounds nuw (%struct.anon, ptr getelementptr inbounds nuw (%struct.rlglData, ptr @RLGL, i32 0, i32 2), i32 0, i32 7), align 1
  %11 = load i8, ptr %7, align 1
  store i8 %11, ptr getelementptr inbounds nuw (%struct.anon, ptr getelementptr inbounds nuw (%struct.rlglData, ptr @RLGL, i32 0, i32 2), i32 0, i32 8), align 2
  %12 = load i8, ptr %8, align 1
  store i8 %12, ptr getelementptr inbounds nuw (%struct.anon, ptr getelementptr inbounds nuw (%struct.rlglData, ptr @RLGL, i32 0, i32 2), i32 0, i32 9), align 1
  ret void
}

; Function Attrs: nounwind uwtable
define void @rlColor4f(float noundef %0, float noundef %1, float noundef %2, float noundef %3) #0 {
  %5 = alloca float, align 4
  %6 = alloca float, align 4
  %7 = alloca float, align 4
  %8 = alloca float, align 4
  store float %0, ptr %5, align 4
  store float %1, ptr %6, align 4
  store float %2, ptr %7, align 4
  store float %3, ptr %8, align 4
  %9 = load float, ptr %5, align 4
  %10 = fmul float %9, 2.550000e+02
  %11 = fptoui float %10 to i8
  %12 = load float, ptr %6, align 4
  %13 = fmul float %12, 2.550000e+02
  %14 = fptoui float %13 to i8
  %15 = load float, ptr %7, align 4
  %16 = fmul float %15, 2.550000e+02
  %17 = fptoui float %16 to i8
  %18 = load float, ptr %8, align 4
  %19 = fmul float %18, 2.550000e+02
  %20 = fptoui float %19 to i8
  call void @rlColor4ub(i8 noundef zeroext %11, i8 noundef zeroext %14, i8 noundef zeroext %17, i8 noundef zeroext %20)
  ret void
}