; Function Attrs: mustprogress nofree norecurse nosync nounwind willreturn memory(write, argmem: none, inaccessiblemem: none) uwtable
define void @rlColor4f(float noundef %0, float noundef %1, float noundef %2, float noundef %3) local_unnamed_addr #2 {
  %5 = fmul float %0, 2.550000e+02
  %6 = fptoui float %5 to i8
  %7 = fmul float %1, 2.550000e+02
  %8 = fptoui float %7 to i8
  %9 = fmul float %2, 2.550000e+02
  %10 = fptoui float %9 to i8
  %11 = fmul float %3, 2.550000e+02
  %12 = fptoui float %11 to i8
  store i8 %6, ptr getelementptr inbounds nuw (i8, ptr @RLGL, i64 64), align 8
  store i8 %8, ptr getelementptr inbounds nuw (i8, ptr @RLGL, i64 65), align 1
  store i8 %10, ptr getelementptr inbounds nuw (i8, ptr @RLGL, i64 66), align 2
  store i8 %12, ptr getelementptr inbounds nuw (i8, ptr @RLGL, i64 67), align 1
  ret void
}